target datalayout = "e-m:e-p270:32:32-p271:32:32-p272:64:64-i64:64-i128:128-f80:128-n8:16:32:64-S128"
target triple = "x86_64-pc-linux-gnu"

@handlerLock = internal global ptr null, align 8
@requestIdCounter = internal global i32 0, align 4

; Function Attrs: nounwind uwtable
define hidden i32 @eventHandler_allocHandlerID() #0 {
  %1 = alloca i32, align 4
  %2 = load ptr, ptr @handlerLock, align 8
  call void @debugMonitorEnter(ptr noundef %2)
  %3 = load i32, ptr @requestIdCounter, align 4
  %4 = add nsw i32 %3, 1
  store i32 %4, ptr @requestIdCounter, align 4
  store i32 %4, ptr %1, align 4
  %5 = load ptr, ptr @handlerLock, align 8
  call void @debugMonitorExit(ptr noundef %5)
  %6 = load i32, ptr %1, align 4
  ret i32 %6
}