; Function Attrs: nounwind uwtable
define hidden range(i32 -2147483647, -2147483648) i32 @eventHandler_allocHandlerID() local_unnamed_addr #0 {
  %1 = load ptr, ptr @handlerLock, align 8
  tail call void @debugMonitorEnter(ptr noundef %1) #6
  %2 = load i32, ptr @requestIdCounter, align 4
  %3 = add nsw i32 %2, 1
  store i32 %3, ptr @requestIdCounter, align 4
  %4 = load ptr, ptr @handlerLock, align 8
  tail call void @debugMonitorExit(ptr noundef %4) #6
  ret i32 %3
}